target datalayout = "e-m:e-p270:32:32-p271:32:32-p272:64:64-i64:64-i128:128-f80:128-n8:16:32:64-S128"
target triple = "x86_64-pc-linux-gnu"

%class.TreeNodeData = type <{ i32, i8, [3 x i8] }>
%class.OctNode = type { i64, ptr, ptr, %class.TreeNodeData }
%"struct.SortedTreeNodes::_Indices" = type { [4 x i32] }
%"struct.SortedTreeNodes::XSliceTableData" = type { ptr, ptr, i32, i32, i32, i32, ptr, ptr }

; Function Attrs: mustprogress nounwind uwtable
define noundef nonnull align 4 dereferenceable(16) ptr @_ZNK15SortedTreeNodes15XSliceTableData11edgeIndicesEPK7OctNodeI12TreeNodeDataE(ptr noundef nonnull align 8 dereferenceable(48) %0, ptr noundef %1) #4 align 2 {
  %3 = alloca ptr, align 8
  %4 = alloca ptr, align 8
  store ptr %0, ptr %3, align 8
  store ptr %1, ptr %4, align 8
  %5 = load ptr, ptr %3, align 8
  %6 = getelementptr inbounds %"struct.SortedTreeNodes::XSliceTableData", ptr %5, i32 0, i32 0
  %7 = load ptr, ptr %6, align 8
  %8 = load ptr, ptr %4, align 8
  %9 = getelementptr inbounds %class.OctNode, ptr %8, i32 0, i32 3
  %10 = getelementptr inbounds %class.TreeNodeData, ptr %9, i32 0, i32 0
  %11 = load i32, ptr %10, align 8
  %12 = getelementptr inbounds %"struct.SortedTreeNodes::XSliceTableData", ptr %5, i32 0, i32 4
  %13 = load i32, ptr %12, align 8
  %14 = sub nsw i32 %11, %13
  %15 = sext i32 %14 to i64
  %16 = getelementptr inbounds %"struct.SortedTreeNodes::_Indices", ptr %7, i64 %15
  ret ptr %16
}